BL51 BANKED LINKER/LOCATER V6.22.2.0                                                    03/11/2020  15:37:44  PAGE 1


BL51 BANKED LINKER/LOCATER V6.22.2.0, INVOKED BY:
C:\KEIL_V5\C51\BIN\BL51.EXE STARTUP.obj, main.obj, oled.obj TO OLED RAMSIZE (256)


MEMORY MODEL: SMALL


INPUT MODULES INCLUDED:
  STARTUP.obj (?C_STARTUP)
  main.obj (MAIN)
  oled.obj (OLED)
  C:\KEIL_V5\C51\LIB\C51S.LIB (?C?CLDOPTR)
  C:\KEIL_V5\C51\LIB\C51S.LIB (?C?IMUL)
  C:\KEIL_V5\C51\LIB\C51S.LIB (?C?UIDIV)


LINK MAP OF MODULE:  OLED (?C_STARTUP)


            TYPE    BASE      LENGTH    RELOCATION   SEGMENT NAME
            -----------------------------------------------------

            * * * * * * *   D A T A   M E M O R Y   * * * * * * *
            REG     0000H     0008H     ABSOLUTE     "REG BANK 0"
            DATA    0008H     0015H     UNIT         _DATA_GROUP_
            IDATA   001DH     0001H     UNIT         ?STACK

            * * * * * * *   C O D E   M E M O R Y   * * * * * * *
            CODE    0000H     0003H     ABSOLUTE     
            CODE    0003H     08F8H     UNIT         ?CO?OLED
            CODE    08FBH     0115H     UNIT         ?CO?MAIN
            CODE    0A10H     00CFH     UNIT         ?PR?_OLED_SHOWCHAR?OLED
            CODE    0ADFH     00C4H     UNIT         ?PR?MAIN?MAIN
            CODE    0BA3H     00A4H     UNIT         ?PR?OLED_INIT?OLED
            CODE    0C47H     0094H     UNIT         ?C?LIB_CODE
            CODE    0CDBH     008CH     UNIT         ?PR?_OLED_SHOWCHINESE?OLED
            CODE    0D67H     008AH     UNIT         ?PR?_OLED_SHOWNUM?OLED
            CODE    0DF1H     0068H     UNIT         ?PR?_OLED_DRAWBMP?OLED
            CODE    0E59H     004AH     UNIT         ?PR?_OLED_SHOWSTRING?OLED
            CODE    0EA3H     0037H     UNIT         ?PR?OLED_CLEAR?OLED
            CODE    0EDAH     0031H     UNIT         ?PR?_OLED_WR_BYTE?OLED
            CODE    0F0BH     002CH     UNIT         ?PR?_SEND_BYTE?OLED
            CODE    0F37H     0026H     UNIT         ?PR?_OLED_DISPLAYTURN?OLED
            CODE    0F5DH     0026H     UNIT         ?PR?_OLED_SET_POS?OLED
            CODE    0F83H     001AH     UNIT         ?PR?_DELAY_MS?OLED
            CODE    0F9DH     0018H     UNIT         ?PR?_OLED_COLORTURN?OLED
            CODE    0FB5H     0018H     UNIT         ?PR?_OLED_POW?OLED
            CODE    0FCDH     0015H     UNIT         ?PR?OLED_DISPLAY_ON?OLED
            CODE    0FE2H     0015H     UNIT         ?PR?OLED_DISPLAY_OFF?OLED
            CODE    0FF7H     000FH     UNIT         ?PR?I2C_START?OLED
            CODE    1006H     000FH     UNIT         ?PR?I2C_WAITACK?OLED
            CODE    1015H     000CH     UNIT         ?C_C51STARTUP
            CODE    1021H     000AH     UNIT         ?PR?I2C_STOP?OLED
            CODE    102BH     0009H     UNIT         ?PR?IIC_DELAY?OLED



OVERLAY MAP OF MODULE:   OLED (?C_STARTUP)
BL51 BANKED LINKER/LOCATER V6.22.2.0                                                  03/11/2020  15:37:44  PAGE 2




SEGMENT                              DATA_GROUP 
  +--> CALLED SEGMENT              START    LENGTH
--------------------------------------------------
?C_C51STARTUP                      -----    -----
  +--> ?PR?MAIN?MAIN

?PR?MAIN?MAIN                      0008H    0001H
  +--> ?PR?OLED_INIT?OLED
  +--> ?PR?_OLED_COLORTURN?OLED
  +--> ?PR?_OLED_DISPLAYTURN?OLED
  +--> ?CO?MAIN
  +--> ?PR?_OLED_DRAWBMP?OLED
  +--> ?PR?_DELAY_MS?OLED
  +--> ?PR?OLED_CLEAR?OLED
  +--> ?PR?_OLED_SHOWCHINESE?OLED
  +--> ?PR?_OLED_SHOWSTRING?OLED
  +--> ?PR?_OLED_SHOWCHAR?OLED
  +--> ?PR?_OLED_SHOWNUM?OLED

?PR?OLED_INIT?OLED                 -----    -----
  +--> ?PR?_DELAY_MS?OLED
  +--> ?PR?_OLED_WR_BYTE?OLED
  +--> ?PR?OLED_CLEAR?OLED

?PR?_OLED_WR_BYTE?OLED             -----    -----
  +--> ?PR?I2C_START?OLED
  +--> ?PR?_SEND_BYTE?OLED
  +--> ?PR?I2C_WAITACK?OLED
  +--> ?PR?I2C_STOP?OLED

?PR?I2C_START?OLED                 -----    -----
  +--> ?PR?IIC_DELAY?OLED

?PR?_SEND_BYTE?OLED                -----    -----
  +--> ?PR?IIC_DELAY?OLED

?PR?I2C_WAITACK?OLED               -----    -----
  +--> ?PR?IIC_DELAY?OLED

?PR?I2C_STOP?OLED                  -----    -----
  +--> ?PR?IIC_DELAY?OLED

?PR?OLED_CLEAR?OLED                0009H    0001H
  +--> ?PR?_OLED_WR_BYTE?OLED

?PR?_OLED_COLORTURN?OLED           0009H    0001H
  +--> ?PR?_OLED_WR_BYTE?OLED

?PR?_OLED_DISPLAYTURN?OLED         0009H    0001H
  +--> ?PR?_OLED_WR_BYTE?OLED

?PR?_OLED_DRAWBMP?OLED             0009H    000BH
  +--> ?PR?_OLED_SET_POS?OLED
  +--> ?PR?_OLED_WR_BYTE?OLED

BL51 BANKED LINKER/LOCATER V6.22.2.0                                                  03/11/2020  15:37:44  PAGE 3


?PR?_OLED_SET_POS?OLED             -----    -----
  +--> ?PR?_OLED_WR_BYTE?OLED

?PR?_OLED_SHOWCHINESE?OLED         0009H    0008H
  +--> ?PR?_OLED_SET_POS?OLED
  +--> ?CO?OLED
  +--> ?PR?_OLED_WR_BYTE?OLED

?PR?_OLED_SHOWSTRING?OLED          0009H    0007H
  +--> ?PR?_OLED_SHOWCHAR?OLED

?PR?_OLED_SHOWCHAR?OLED            0013H    000AH
  +--> ?PR?_OLED_SET_POS?OLED
  +--> ?CO?OLED
  +--> ?PR?_OLED_WR_BYTE?OLED

?PR?_OLED_SHOWNUM?OLED             0009H    000AH
  +--> ?PR?_OLED_POW?OLED
  +--> ?PR?_OLED_SHOWCHAR?OLED

?PR?_OLED_POW?OLED                 0013H    0001H



SYMBOL TABLE OF MODULE:  OLED (?C_STARTUP)

  VALUE           TYPE          NAME
  ----------------------------------

  -------         MODULE        ?C_STARTUP
  C:1015H         SEGMENT       ?C_C51STARTUP
  I:001DH         SEGMENT       ?STACK
  C:0000H         PUBLIC        ?C_STARTUP
  D:00E0H         SYMBOL        ACC
  D:00F0H         SYMBOL        B
  D:0083H         SYMBOL        DPH
  D:0082H         SYMBOL        DPL
  N:0000H         SYMBOL        IBPSTACK
  N:0100H         SYMBOL        IBPSTACKTOP
  N:0080H         SYMBOL        IDATALEN
  C:1018H         SYMBOL        IDATALOOP
  N:0000H         SYMBOL        PBPSTACK
  N:0100H         SYMBOL        PBPSTACKTOP
  N:0000H         SYMBOL        PDATALEN
  N:0000H         SYMBOL        PDATASTART
  N:0000H         SYMBOL        PPAGE
  N:0000H         SYMBOL        PPAGEENABLE
  D:00A0H         SYMBOL        PPAGE_SFR
  D:0081H         SYMBOL        SP
  C:1015H         SYMBOL        STARTUP1
  N:0000H         SYMBOL        XBPSTACK
  N:0000H         SYMBOL        XBPSTACKTOP
  N:0000H         SYMBOL        XDATALEN
  N:0000H         SYMBOL        XDATASTART
  C:0000H         LINE#         126
  C:1015H         LINE#         133
  C:1017H         LINE#         134
BL51 BANKED LINKER/LOCATER V6.22.2.0                                                  03/11/2020  15:37:44  PAGE 4


  C:1018H         LINE#         135
  C:1019H         LINE#         136
  C:101BH         LINE#         185
  C:101EH         LINE#         196
  -------         ENDMOD        ?C_STARTUP

  -------         MODULE        MAIN
  C:0000H         SYMBOL        _ICE_DUMMY_
  D:0090H         PUBLIC        P1
  C:0910H         PUBLIC        BMP1
  C:0ADFH         PUBLIC        main
  -------         PROC          MAIN
  -------         DO            
  D:0008H         SYMBOL        t
  -------         ENDDO         
  C:0ADFH         LINE#         33
  C:0ADFH         LINE#         34
  C:0ADFH         LINE#         35
  C:0AE2H         LINE#         36
  C:0AE5H         LINE#         37
  C:0AEAH         LINE#         38
  C:0AEFH         LINE#         39
  C:0AEFH         LINE#         40
  C:0AEFH         LINE#         41
  C:0B03H         LINE#         42
  C:0B0AH         LINE#         43
  C:0B0DH         LINE#         44
  C:0B10H         LINE#         45
  C:0B1BH         LINE#         46
  C:0B27H         LINE#         47
  C:0B33H         LINE#         48
  C:0B43H         LINE#         49
  C:0B4AH         LINE#         50
  C:0B4DH         LINE#         51
  C:0B5CH         LINE#         52
  C:0B6CH         LINE#         53
  C:0B78H         LINE#         54
  C:0B7AH         LINE#         55
  C:0B84H         LINE#         56
  C:0B96H         LINE#         57
  C:0B9DH         LINE#         58
  C:0BA0H         LINE#         59
  -------         ENDPROC       MAIN
  -------         ENDMOD        MAIN

  -------         MODULE        OLED
  C:0000H         SYMBOL        _ICE_DUMMY_
  C:0FCDH         PUBLIC        OLED_Display_On
  D:0090H         PUBLIC        P1
  C:0F0BH         PUBLIC        _Send_Byte
  C:0F37H         PUBLIC        _OLED_DisplayTurn
  C:0003H         PUBLIC        asc2_0806
  C:022BH         PUBLIC        asc2_1608
  C:0BA3H         PUBLIC        OLED_Init
  C:0E59H         PUBLIC        _OLED_ShowString
  C:0EE2H         PUBLIC        _OLED_WR_Byte
  C:0A10H         PUBLIC        _OLED_ShowChar
BL51 BANKED LINKER/LOCATER V6.22.2.0                                                  03/11/2020  15:37:44  PAGE 5


  C:081BH         PUBLIC        Hzk
  C:0FF7H         PUBLIC        I2C_Start
  C:0F9DH         PUBLIC        _OLED_ColorTurn
  C:1006H         PUBLIC        I2C_WaitAck
  C:1021H         PUBLIC        I2C_Stop
  C:0F5DH         PUBLIC        _OLED_Set_Pos
  C:102BH         PUBLIC        IIC_delay
  C:0F83H         PUBLIC        _delay_ms
  C:0D67H         PUBLIC        _OLED_ShowNum
  C:0FE2H         PUBLIC        OLED_Display_Off
  C:0FB5H         PUBLIC        _oled_pow
  B:0090H.1       PUBLIC        OLED_SDA
  B:0090H.0       PUBLIC        OLED_SCL
  C:0CDBH         PUBLIC        _OLED_ShowChinese
  C:0EA3H         PUBLIC        OLED_Clear
  B:0090H.2       PUBLIC        OLED_RES
  C:0DF1H         PUBLIC        _OLED_DrawBMP
  -------         PROC          _DELAY_MS
  D:0006H         SYMBOL        ms
  -------         DO            
  D:0004H         SYMBOL        a
  -------         ENDDO         
  C:0F83H         LINE#         14
  C:0F83H         LINE#         15
  C:0F83H         LINE#         17
  C:0F87H         LINE#         18
  C:0F87H         LINE#         19
  C:0F8BH         LINE#         20
  C:0F95H         LINE#         21
  C:0F9AH         LINE#         22
  C:0F9CH         LINE#         24
  -------         ENDPROC       _DELAY_MS
  -------         PROC          _OLED_COLORTURN
  D:0009H         SYMBOL        i
  C:0F9DH         LINE#         27
  C:0F9FH         LINE#         28
  C:0F9FH         LINE#         29
  C:0FA2H         LINE#         30
  C:0FA2H         LINE#         31
  C:0FA8H         LINE#         32
  C:0FA8H         LINE#         33
  C:0FAEH         LINE#         34
  C:0FAEH         LINE#         35
  C:0FB4H         LINE#         36
  C:0FB4H         LINE#         37
  -------         ENDPROC       _OLED_COLORTURN
  -------         PROC          _OLED_DISPLAYTURN
  D:0009H         SYMBOL        i
  C:0F37H         LINE#         40
  C:0F39H         LINE#         41
  C:0F39H         LINE#         42
  C:0F3CH         LINE#         43
  C:0F3CH         LINE#         44
  C:0F42H         LINE#         45
  C:0F49H         LINE#         46
  C:0F49H         LINE#         47
  C:0F4FH         LINE#         48
BL51 BANKED LINKER/LOCATER V6.22.2.0                                                  03/11/2020  15:37:44  PAGE 6


  C:0F4FH         LINE#         49
  C:0F55H         LINE#         50
  C:0F5CH         LINE#         51
  C:0F5CH         LINE#         52
  -------         ENDPROC       _OLED_DISPLAYTURN
  -------         PROC          IIC_DELAY
  -------         DO            
  D:0007H         SYMBOL        t
  -------         ENDDO         
  C:102BH         LINE#         56
  C:102BH         LINE#         57
  C:102BH         LINE#         58
  C:102DH         LINE#         59
  C:1033H         LINE#         60
  -------         ENDPROC       IIC_DELAY
  -------         PROC          I2C_START
  C:0FF7H         LINE#         63
  C:0FF7H         LINE#         64
  C:0FF7H         LINE#         65
  C:0FF9H         LINE#         66
  C:0FFBH         LINE#         67
  C:0FFEH         LINE#         68
  C:1000H         LINE#         69
  C:1003H         LINE#         70
  C:1005H         LINE#         72
  -------         ENDPROC       I2C_START
  -------         PROC          I2C_STOP
  C:1021H         LINE#         75
  C:1021H         LINE#         76
  C:1021H         LINE#         77
  C:1023H         LINE#         78
  C:1025H         LINE#         79
  C:1028H         LINE#         80
  C:102AH         LINE#         81
  -------         ENDPROC       I2C_STOP
  -------         PROC          I2C_WAITACK
  C:1006H         LINE#         84
  C:1006H         LINE#         85
  C:1006H         LINE#         86
  C:1008H         LINE#         87
  C:100BH         LINE#         88
  C:100DH         LINE#         89
  C:1010H         LINE#         90
  C:1012H         LINE#         91
  -------         ENDPROC       I2C_WAITACK
  -------         PROC          _SEND_BYTE
  D:0005H         SYMBOL        dat
  -------         DO            
  D:0004H         SYMBOL        i
  -------         ENDDO         
  C:0F0BH         LINE#         95
  C:0F0DH         LINE#         96
  C:0F0DH         LINE#         98
  C:0F19H         LINE#         99
  C:0F19H         LINE#         100
  C:0F1BH         LINE#         101
  C:0F1FH         LINE#         102
BL51 BANKED LINKER/LOCATER V6.22.2.0                                                  03/11/2020  15:37:44  PAGE 7


  C:0F1FH         LINE#         103
  C:0F21H         LINE#         104
  C:0F23H         LINE#         106
  C:0F23H         LINE#         107
  C:0F25H         LINE#         108
  C:0F25H         LINE#         109
  C:0F28H         LINE#         110
  C:0F2AH         LINE#         111
  C:0F2DH         LINE#         112
  C:0F2FH         LINE#         113
  C:0F33H         LINE#         114
  C:0F36H         LINE#         115
  -------         ENDPROC       _SEND_BYTE
  C:0EDAH         SYMBOL        L?0095
  C:0EDCH         SYMBOL        L?0096
  -------         PROC          L?0094
  -------         ENDPROC       L?0094
  C:0EDAH         SYMBOL        L?0095
  C:0EDCH         SYMBOL        L?0096
  -------         PROC          _OLED_WR_BYTE
  D:0002H         SYMBOL        dat
  D:0003H         SYMBOL        mode
  C:0EE2H         LINE#         120
  C:0EE6H         LINE#         121
  C:0EE6H         LINE#         122
  C:0EE9H         LINE#         123
  C:0EEEH         LINE#         124
  C:0EF1H         LINE#         125
  C:0EF8H         LINE#         126
  C:0EFDH         LINE#         127
  C:0F00H         LINE#         128
  C:0F05H         LINE#         129
  C:0F08H         LINE#         130
  -------         ENDPROC       _OLED_WR_BYTE
  -------         PROC          _OLED_SET_POS
  D:0001H         SYMBOL        x
  D:0005H         SYMBOL        y
  C:0F5DH         LINE#         135
  C:0F5FH         LINE#         136
  C:0F5FH         LINE#         137
  C:0F63H         LINE#         138
  C:0F6CH         LINE#         139
  C:0F7AH         LINE#         140
  -------         ENDPROC       _OLED_SET_POS
  -------         PROC          OLED_DISPLAY_ON
  C:0FCDH         LINE#         143
  C:0FCDH         LINE#         144
  C:0FCDH         LINE#         145
  C:0FD4H         LINE#         146
  C:0FDBH         LINE#         147
  -------         ENDPROC       OLED_DISPLAY_ON
  -------         PROC          OLED_DISPLAY_OFF
  C:0FE2H         LINE#         150
  C:0FE2H         LINE#         151
  C:0FE2H         LINE#         152
  C:0FE9H         LINE#         153
  C:0FF0H         LINE#         154
BL51 BANKED LINKER/LOCATER V6.22.2.0                                                  03/11/2020  15:37:44  PAGE 8


  -------         ENDPROC       OLED_DISPLAY_OFF
  -------         PROC          OLED_CLEAR
  -------         DO            
  D:0001H         SYMBOL        i
  D:0009H         SYMBOL        n
  -------         ENDDO         
  C:0EA3H         LINE#         157
  C:0EA3H         LINE#         158
  C:0EA3H         LINE#         160
  C:0EAFH         LINE#         161
  C:0EAFH         LINE#         162
  C:0EB3H         LINE#         163
  C:0EB6H         LINE#         164
  C:0EBDH         LINE#         165
  C:0ED6H         LINE#         166
  C:0ED9H         LINE#         167
  -------         ENDPROC       OLED_CLEAR
  -------         PROC          _OLED_SHOWCHAR
  D:0013H         SYMBOL        x
  D:0014H         SYMBOL        y
  D:0003H         SYMBOL        chr
  D:0016H         SYMBOL        sizey
  -------         DO            
  D:0017H         SYMBOL        c
  D:0018H         SYMBOL        sizex
  D:0019H         SYMBOL        i
  D:001BH         SYMBOL        size1
  -------         ENDDO         
  C:0A10H         LINE#         173
  C:0A14H         LINE#         174
  C:0A14H         LINE#         175
  C:0A1EH         LINE#         176
  C:0A23H         LINE#         177
  C:0A30H         LINE#         178
  C:0A59H         LINE#         179
  C:0A5EH         LINE#         180
  C:0A65H         LINE#         181
  C:0A75H         LINE#         182
  C:0A75H         LINE#         183
  C:0A94H         LINE#         184
  C:0AAAH         LINE#         185
  C:0AD4H         LINE#         188
  C:0ADEH         LINE#         189
  -------         ENDPROC       _OLED_SHOWCHAR
  -------         PROC          _OLED_POW
  D:0013H         SYMBOL        m
  D:0001H         SYMBOL        n
  -------         DO            
  D:0006H         SYMBOL        result
  -------         ENDDO         
  C:0FB5H         LINE#         191
  C:0FB9H         LINE#         192
  C:0FB9H         LINE#         193
  C:0FBDH         LINE#         194
  C:0FCCH         LINE#         195
  C:0FCCH         LINE#         196
  -------         ENDPROC       _OLED_POW
BL51 BANKED LINKER/LOCATER V6.22.2.0                                                  03/11/2020  15:37:44  PAGE 9


  -------         PROC          _OLED_SHOWNUM
  D:0009H         SYMBOL        x
  D:000AH         SYMBOL        y
  D:000BH         SYMBOL        num
  D:000DH         SYMBOL        len
  D:000EH         SYMBOL        sizey
  -------         DO            
  D:000FH         SYMBOL        t
  D:0010H         SYMBOL        temp
  D:0011H         SYMBOL        m
  D:0012H         SYMBOL        enshow
  -------         ENDDO         
  C:0D67H         LINE#         202
  C:0D6FH         LINE#         203
  C:0D6FH         LINE#         204
  C:0D72H         LINE#         205
  C:0D74H         LINE#         206
  C:0D7DH         LINE#         207
  C:0D87H         LINE#         208
  C:0D87H         LINE#         209
  C:0DA9H         LINE#         210
  C:0DB7H         LINE#         211
  C:0DB7H         LINE#         212
  C:0DBBH         LINE#         213
  C:0DBBH         LINE#         214
  C:0DCDH         LINE#         215
  C:0DCFH         LINE#         216
  C:0DD2H         LINE#         217
  C:0DD2H         LINE#         218
  C:0DECH         LINE#         219
  C:0DF0H         LINE#         220
  -------         ENDPROC       _OLED_SHOWNUM
  -------         PROC          _OLED_SHOWSTRING
  D:0009H         SYMBOL        x
  D:000AH         SYMBOL        y
  D:000BH         SYMBOL        chr
  D:000EH         SYMBOL        sizey
  -------         DO            
  D:000FH         SYMBOL        j
  -------         ENDDO         
  C:0E59H         LINE#         222
  C:0E63H         LINE#         223
  C:0E63H         LINE#         224
  C:0E66H         LINE#         225
  C:0E77H         LINE#         226
  C:0E77H         LINE#         227
  C:0E8EH         LINE#         228
  C:0E98H         LINE#         229
  C:0EA0H         LINE#         230
  C:0EA2H         LINE#         231
  -------         ENDPROC       _OLED_SHOWSTRING
  -------         PROC          _OLED_SHOWCHINESE
  D:0009H         SYMBOL        x
  D:000AH         SYMBOL        y
  D:000BH         SYMBOL        no
  D:000CH         SYMBOL        sizey
  -------         DO            
BL51 BANKED LINKER/LOCATER V6.22.2.0                                                  03/11/2020  15:37:44  PAGE 10


  D:000DH         SYMBOL        i
  D:000FH         SYMBOL        size1
  -------         ENDDO         
  C:0CDBH         LINE#         233
  C:0CE1H         LINE#         234
  C:0CE1H         LINE#         235
  C:0D0AH         LINE#         236
  C:0D1AH         LINE#         237
  C:0D1AH         LINE#         238
  C:0D33H         LINE#         239
  C:0D5CH         LINE#         242
  C:0D66H         LINE#         243
  -------         ENDPROC       _OLED_SHOWCHINESE
  -------         PROC          _OLED_DRAWBMP
  D:0009H         SYMBOL        x
  D:000AH         SYMBOL        y
  D:000BH         SYMBOL        sizex
  D:000CH         SYMBOL        sizey
  D:000DH         SYMBOL        BMP
  -------         DO            
  D:0010H         SYMBOL        j
  D:0012H         SYMBOL        i
  D:0013H         SYMBOL        m
  -------         ENDDO         
  C:0DF1H         LINE#         250
  C:0DF7H         LINE#         251
  C:0DF7H         LINE#         252
  C:0DFCH         LINE#         254
  C:0E14H         LINE#         255
  C:0E1EH         LINE#         256
  C:0E1EH         LINE#         257
  C:0E28H         LINE#         258
  C:0E32H         LINE#         259
  C:0E32H         LINE#         260
  C:0E50H         LINE#         261
  C:0E54H         LINE#         262
  C:0E58H         LINE#         263
  -------         ENDPROC       _OLED_DRAWBMP
  -------         PROC          OLED_INIT
  C:0BA3H         LINE#         268
  C:0BA3H         LINE#         269
  C:0BA3H         LINE#         270
  C:0BA5H         LINE#         271
  C:0BACH         LINE#         272
  C:0BAEH         LINE#         274
  C:0BB0H         LINE#         275
  C:0BB3H         LINE#         276
  C:0BB5H         LINE#         277
  C:0BB8H         LINE#         278
  C:0BBFH         LINE#         279
  C:0BC6H         LINE#         280
  C:0BCDH         LINE#         281
  C:0BD4H         LINE#         282
  C:0BDBH         LINE#         283
  C:0BE2H         LINE#         284
  C:0BE9H         LINE#         285
  C:0BF0H         LINE#         286
BL51 BANKED LINKER/LOCATER V6.22.2.0                                                  03/11/2020  15:37:44  PAGE 11


  C:0BF4H         LINE#         287
  C:0BF7H         LINE#         288
  C:0BFEH         LINE#         289
  C:0C05H         LINE#         290
  C:0C0CH         LINE#         291
  C:0C13H         LINE#         292
  C:0C1AH         LINE#         293
  C:0C21H         LINE#         294
  C:0C28H         LINE#         295
  C:0C2FH         LINE#         296
  C:0C36H         LINE#         297
  C:0C3DH         LINE#         298
  C:0C40H         LINE#         299
  -------         ENDPROC       OLED_INIT
  -------         ENDMOD        OLED

  -------         MODULE        ?C?CLDOPTR
  C:0C47H         PUBLIC        ?C?CLDOPTR
  -------         ENDMOD        ?C?CLDOPTR

  -------         MODULE        ?C?IMUL
  C:0C74H         PUBLIC        ?C?IMUL
  -------         ENDMOD        ?C?IMUL

  -------         MODULE        ?C?UIDIV
  C:0C86H         PUBLIC        ?C?UIDIV
  -------         ENDMOD        ?C?UIDIV

*** WARNING L16: UNCALLED SEGMENT, IGNORED FOR OVERLAY PROCESS
    SEGMENT: ?PR?OLED_DISPLAY_ON?OLED

*** WARNING L16: UNCALLED SEGMENT, IGNORED FOR OVERLAY PROCESS
    SEGMENT: ?PR?OLED_DISPLAY_OFF?OLED

Program Size: data=30.0 xdata=0 code=4148
LINK/LOCATE RUN COMPLETE.  2 WARNING(S),  0 ERROR(S)
